target datalayout = "e-m:e-p270:32:32-p271:32:32-p272:64:64-i64:64-i128:128-f80:128-n8:16:32:64-S128"
target triple = "x86_64-pc-linux-gnu"

%class.btMultiBodyDynamicsWorld = type { %class.btDiscreteDynamicsWorld.base, [4 x i8], %class.btAlignedObjectArray.8, %class.btAlignedObjectArray.10, %class.btAlignedObjectArray.10, ptr, ptr, %class.btAlignedObjectArray.12, %class.btAlignedObjectArray.14, %class.btAlignedObjectArray.12, %class.btAlignedObjectArray.14, %class.btAlignedObjectArray.16, %class.btAlignedObjectArray.14, %class.btAlignedObjectArray.18 }
%class.btDiscreteDynamicsWorld.base = type <{ %class.btDynamicsWorld, %class.btAlignedObjectArray.0, ptr, ptr, ptr, %class.btAlignedObjectArray.0, %class.btAlignedObjectArray.2, %class.btVector3, float, float, i8, i8, i8, i8, [4 x i8], %class.btAlignedObjectArray.4, i32, i8, [3 x i8], %class.btAlignedObjectArray.6, %class.btSpinMutex }>
%class.btDynamicsWorld = type { %class.btCollisionWorld.base, ptr, ptr, ptr, %struct.btContactSolverInfo }
%class.btCollisionWorld.base = type <{ ptr, %class.btAlignedObjectArray, ptr, %struct.btDispatcherInfo, ptr, ptr, i8 }>
%class.btAlignedObjectArray = type <{ [4 x i8], i32, i32, [4 x i8], ptr, i8, [7 x i8] }>
%struct.btDispatcherInfo = type <{ float, i32, i32, float, i8, [7 x i8], ptr, i8, i8, i8, i8, float, i8, [3 x i8], float, i8, [7 x i8] }>
%struct.btContactSolverInfo = type { %struct.btContactSolverInfoData }
%struct.btContactSolverInfoData = type { float, float, float, float, float, i32, float, float, float, float, float, float, float, float, float, float, i32, float, float, float, float, float, i32, i32, i32, float, float, float, float, i8, i8, i32, i32 }
%class.btAlignedObjectArray.0 = type <{ [4 x i8], i32, i32, [4 x i8], ptr, i8, [7 x i8] }>
%class.btAlignedObjectArray.2 = type <{ [4 x i8], i32, i32, [4 x i8], ptr, i8, [7 x i8] }>
%class.btVector3 = type { [4 x float] }
%class.btAlignedObjectArray.4 = type <{ [4 x i8], i32, i32, [4 x i8], ptr, i8, [7 x i8] }>
%class.btAlignedObjectArray.6 = type <{ [4 x i8], i32, i32, [4 x i8], ptr, i8, [7 x i8] }>
%class.btSpinMutex = type { i32 }
%class.btAlignedObjectArray.8 = type <{ [4 x i8], i32, i32, [4 x i8], ptr, i8, [7 x i8] }>
%class.btAlignedObjectArray.10 = type <{ [4 x i8], i32, i32, [4 x i8], ptr, i8, [7 x i8] }>
%class.btAlignedObjectArray.12 = type <{ [4 x i8], i32, i32, [4 x i8], ptr, i8, [7 x i8] }>
%class.btAlignedObjectArray.16 = type <{ [4 x i8], i32, i32, [4 x i8], ptr, i8, [7 x i8] }>
%class.btAlignedObjectArray.14 = type <{ [4 x i8], i32, i32, [4 x i8], ptr, i8, [7 x i8] }>
%class.btAlignedObjectArray.18 = type <{ [4 x i8], i32, i32, [4 x i8], ptr, i8, [7 x i8] }>
%class.btTransform = type { %class.btMatrix3x3, %class.btVector3 }
%class.btMatrix3x3 = type { [3 x %class.btVector3] }
%class.btCollisionWorld = type <{ ptr, %class.btAlignedObjectArray, ptr, %struct.btDispatcherInfo, ptr, ptr, i8, [7 x i8] }>
%class.btCollisionObject = type <{ ptr, %class.btTransform, %class.btTransform, %class.btVector3, %class.btVector3, %class.btVector3, i32, float, ptr, ptr, ptr, ptr, i32, i32, i32, i32, i32, float, float, float, float, float, float, float, i32, [4 x i8], ptr, i32, i32, i32, float, float, float, i32, [4 x i8], %class.btAlignedObjectArray.24, i32, %class.btVector3, [4 x i8] }>
%class.btAlignedObjectArray.24 = type <{ [4 x i8], i32, i32, [4 x i8], ptr, i8, [7 x i8] }>
%class.btChunk = type { i32, i32, ptr, i32, i32 }

; Function Attrs: mustprogress nounwind uwtable
define linkonce_odr dso_local noundef i32 @_ZNK17btCollisionObject15getInternalTypeEv(ptr noundef nonnull align 8 dereferenceable(372) %0) #1 comdat align 2 {
  %2 = alloca ptr, align 8
  store ptr %0, ptr %2, align 8, !tbaa !49
  %3 = load ptr, ptr %2, align 8
  %4 = getelementptr inbounds nuw %class.btCollisionObject, ptr %3, i32 0, i32 24
  %5 = load i32, ptr %4, align 8, !tbaa !298
  ret i32 %5
}

; Function Attrs: inlinehint mustprogress nounwind uwtable
define linkonce_odr dso_local noundef nonnull align 8 dereferenceable(8) ptr @_ZN20btAlignedObjectArrayIP17btCollisionObjectEixEi(ptr noundef nonnull align 8 dereferenceable(25) %0, i32 noundef %1) #6 comdat align 2 {
  %3 = alloca ptr, align 8
  %4 = alloca i32, align 4
  store ptr %0, ptr %3, align 8, !tbaa !294
  store i32 %1, ptr %4, align 4, !tbaa !9
  %5 = load ptr, ptr %3, align 8
  %6 = getelementptr inbounds nuw %class.btAlignedObjectArray, ptr %5, i32 0, i32 4
  %7 = load ptr, ptr %6, align 8, !tbaa !297
  %8 = load i32, ptr %4, align 4, !tbaa !9
  %9 = sext i32 %8 to i64
  %10 = getelementptr inbounds ptr, ptr %7, i64 %9
  ret ptr %10
}

; Function Attrs: inlinehint mustprogress nounwind uwtable
define linkonce_odr dso_local noundef i32 @_ZNK20btAlignedObjectArrayIP17btCollisionObjectE4sizeEv(ptr noundef nonnull align 8 dereferenceable(25) %0) #6 comdat align 2 {
  %2 = alloca ptr, align 8
  store ptr %0, ptr %2, align 8, !tbaa !294
  %3 = load ptr, ptr %2, align 8
  %4 = getelementptr inbounds nuw %class.btAlignedObjectArray, ptr %3, i32 0, i32 1
  %5 = load i32, ptr %4, align 4, !tbaa !296
  ret i32 %5
}

; Function Attrs: inlinehint mustprogress nounwind uwtable
define linkonce_odr dso_local noundef nonnull align 8 dereferenceable(8) ptr @_ZN20btAlignedObjectArrayIP11btMultiBodyEixEi(ptr noundef nonnull align 8 dereferenceable(25) %0, i32 noundef %1) #6 comdat align 2 {
  %3 = alloca ptr, align 8
  %4 = alloca i32, align 4
  store ptr %0, ptr %3, align 8, !tbaa !16
  store i32 %1, ptr %4, align 4, !tbaa !9
  %5 = load ptr, ptr %3, align 8
  %6 = getelementptr inbounds nuw %class.btAlignedObjectArray.8, ptr %5, i32 0, i32 4
  %7 = load ptr, ptr %6, align 8, !tbaa !20
  %8 = load i32, ptr %4, align 4, !tbaa !9
  %9 = sext i32 %8 to i64
  %10 = getelementptr inbounds ptr, ptr %7, i64 %9
  ret ptr %10
}

; Function Attrs: inlinehint mustprogress nounwind uwtable
define linkonce_odr dso_local noundef i32 @_ZNK20btAlignedObjectArrayIP11btMultiBodyE4sizeEv(ptr noundef nonnull align 8 dereferenceable(25) %0) #6 comdat align 2 {
  %2 = alloca ptr, align 8
  store ptr %0, ptr %2, align 8, !tbaa !16
  %3 = load ptr, ptr %2, align 8
  %4 = getelementptr inbounds nuw %class.btAlignedObjectArray.8, ptr %3, i32 0, i32 1
  %5 = load i32, ptr %4, align 4, !tbaa !24
  ret i32 %5
}

; Function Attrs: mustprogress uwtable
define dso_local void @_ZN24btMultiBodyDynamicsWorld20serializeMultiBodiesEP12btSerializer(ptr noundef nonnull align 8 dereferenceable(848) %0, ptr noundef %1) unnamed_addr #2 align 2 {
  %3 = alloca ptr, align 8
  %4 = alloca ptr, align 8
  %5 = alloca i32, align 4
  %6 = alloca ptr, align 8
  %7 = alloca i32, align 4
  %8 = alloca ptr, align 8
  %9 = alloca ptr, align 8
  %10 = alloca ptr, align 8
  %11 = alloca i32, align 4
  %12 = alloca ptr, align 8
  %13 = alloca ptr, align 8
  store ptr %0, ptr %3, align 8, !tbaa !12
  store ptr %1, ptr %4, align 8, !tbaa !285
  %14 = load ptr, ptr %3, align 8
  call void @llvm.lifetime.start.p0(i64 4, ptr %5) #16
  store i32 0, ptr %5, align 4, !tbaa !9
  br label %15

15:                                               ; preds = %53, %2
  %16 = load i32, ptr %5, align 4, !tbaa !9
  %17 = getelementptr inbounds nuw %class.btMultiBodyDynamicsWorld, ptr %14, i32 0, i32 2
  %18 = call noundef i32 @_ZNK20btAlignedObjectArrayIP11btMultiBodyE4sizeEv(ptr noundef nonnull align 8 dereferenceable(25) %17)
  %19 = icmp slt i32 %16, %18
  br i1 %19, label %20, label %56

20:                                               ; preds = %15
  call void @llvm.lifetime.start.p0(i64 8, ptr %6) #16
  %21 = getelementptr inbounds nuw %class.btMultiBodyDynamicsWorld, ptr %14, i32 0, i32 2
  %22 = load i32, ptr %5, align 4, !tbaa !9
  %23 = call noundef nonnull align 8 dereferenceable(8) ptr @_ZN20btAlignedObjectArrayIP11btMultiBodyEixEi(ptr noundef nonnull align 8 dereferenceable(25) %21, i32 noundef %22)
  %24 = load ptr, ptr %23, align 8, !tbaa !14
  store ptr %24, ptr %6, align 8, !tbaa !14
  call void @llvm.lifetime.start.p0(i64 4, ptr %7) #16
  %25 = load ptr, ptr %6, align 8, !tbaa !14
  %26 = load ptr, ptr %25, align 8, !tbaa !45
  %27 = getelementptr inbounds ptr, ptr %26, i64 2
  %28 = load ptr, ptr %27, align 8
  %29 = call noundef i32 %28(ptr noundef nonnull align 8 dereferenceable(640) %25)
  store i32 %29, ptr %7, align 4, !tbaa !9
  call void @llvm.lifetime.start.p0(i64 8, ptr %8) #16
  %30 = load ptr, ptr %4, align 8, !tbaa !285
  %31 = load i32, ptr %7, align 4, !tbaa !9
  %32 = sext i32 %31 to i64
  %33 = load ptr, ptr %30, align 8, !tbaa !45
  %34 = getelementptr inbounds ptr, ptr %33, i64 4
  %35 = load ptr, ptr %34, align 8
  %36 = call noundef ptr %35(ptr noundef nonnull align 8 dereferenceable(8) %30, i64 noundef %32, i32 noundef 1)
  store ptr %36, ptr %8, align 8, !tbaa !287
  call void @llvm.lifetime.start.p0(i64 8, ptr %9) #16
  %37 = load ptr, ptr %6, align 8, !tbaa !14
  %38 = load ptr, ptr %8, align 8, !tbaa !287
  %39 = getelementptr inbounds nuw %class.btChunk, ptr %38, i32 0, i32 2
  %40 = load ptr, ptr %39, align 8, !tbaa !289
  %41 = load ptr, ptr %4, align 8, !tbaa !285
  %42 = load ptr, ptr %37, align 8, !tbaa !45
  %43 = getelementptr inbounds ptr, ptr %42, i64 3
  %44 = load ptr, ptr %43, align 8
  %45 = call noundef ptr %44(ptr noundef nonnull align 8 dereferenceable(640) %37, ptr noundef %40, ptr noundef %41)
  store ptr %45, ptr %9, align 8, !tbaa !291
  %46 = load ptr, ptr %4, align 8, !tbaa !285
  %47 = load ptr, ptr %8, align 8, !tbaa !287
  %48 = load ptr, ptr %9, align 8, !tbaa !291
  %49 = load ptr, ptr %6, align 8, !tbaa !14
  %50 = load ptr, ptr %46, align 8, !tbaa !45
  %51 = getelementptr inbounds ptr, ptr %50, i64 5
  %52 = load ptr, ptr %51, align 8
  call void %52(ptr noundef nonnull align 8 dereferenceable(8) %46, ptr noundef %47, ptr noundef %48, i32 noundef 1497645645, ptr noundef %49)
  call void @llvm.lifetime.end.p0(i64 8, ptr %9) #16
  call void @llvm.lifetime.end.p0(i64 8, ptr %8) #16
  call void @llvm.lifetime.end.p0(i64 4, ptr %7) #16
  call void @llvm.lifetime.end.p0(i64 8, ptr %6) #16
  br label %53

53:                                               ; preds = %20
  %54 = load i32, ptr %5, align 4, !tbaa !9
  %55 = add nsw i32 %54, 1
  store i32 %55, ptr %5, align 4, !tbaa !9
  br label %15, !llvm.loop !292

56:                                               ; preds = %15
  store i32 0, ptr %5, align 4, !tbaa !9
  br label %57

57:                                               ; preds = %100, %56
  %58 = load i32, ptr %5, align 4, !tbaa !9
  %59 = getelementptr inbounds nuw %class.btCollisionWorld, ptr %14, i32 0, i32 1
  %60 = call noundef i32 @_ZNK20btAlignedObjectArrayIP17btCollisionObjectE4sizeEv(ptr noundef nonnull align 8 dereferenceable(25) %59)
  %61 = icmp slt i32 %58, %60
  br i1 %61, label %62, label %103

62:                                               ; preds = %57
  call void @llvm.lifetime.start.p0(i64 8, ptr %10) #16
  %63 = getelementptr inbounds nuw %class.btCollisionWorld, ptr %14, i32 0, i32 1
  %64 = load i32, ptr %5, align 4, !tbaa !9
  %65 = call noundef nonnull align 8 dereferenceable(8) ptr @_ZN20btAlignedObjectArrayIP17btCollisionObjectEixEi(ptr noundef nonnull align 8 dereferenceable(25) %63, i32 noundef %64)
  %66 = load ptr, ptr %65, align 8, !tbaa !49
  store ptr %66, ptr %10, align 8, !tbaa !49
  %67 = load ptr, ptr %10, align 8, !tbaa !49
  %68 = call noundef i32 @_ZNK17btCollisionObject15getInternalTypeEv(ptr noundef nonnull align 8 dereferenceable(372) %67)
  %69 = icmp eq i32 %68, 64
  br i1 %69, label %70, label %99

70:                                               ; preds = %62
  call void @llvm.lifetime.start.p0(i64 4, ptr %11) #16
  %71 = load ptr, ptr %10, align 8, !tbaa !49
  %72 = load ptr, ptr %71, align 8, !tbaa !45
  %73 = getelementptr inbounds ptr, ptr %72, i64 4
  %74 = load ptr, ptr %73, align 8
  %75 = call noundef i32 %74(ptr noundef nonnull align 8 dereferenceable(372) %71)
  store i32 %75, ptr %11, align 4, !tbaa !9
  call void @llvm.lifetime.start.p0(i64 8, ptr %12) #16
  %76 = load ptr, ptr %4, align 8, !tbaa !285
  %77 = load i32, ptr %11, align 4, !tbaa !9
  %78 = sext i32 %77 to i64
  %79 = load ptr, ptr %76, align 8, !tbaa !45
  %80 = getelementptr inbounds ptr, ptr %79, i64 4
  %81 = load ptr, ptr %80, align 8
  %82 = call noundef ptr %81(ptr noundef nonnull align 8 dereferenceable(8) %76, i64 noundef %78, i32 noundef 1)
  store ptr %82, ptr %12, align 8, !tbaa !287
  call void @llvm.lifetime.start.p0(i64 8, ptr %13) #16
  %83 = load ptr, ptr %10, align 8, !tbaa !49
  %84 = load ptr, ptr %12, align 8, !tbaa !287
  %85 = getelementptr inbounds nuw %class.btChunk, ptr %84, i32 0, i32 2
  %86 = load ptr, ptr %85, align 8, !tbaa !289
  %87 = load ptr, ptr %4, align 8, !tbaa !285
  %88 = load ptr, ptr %83, align 8, !tbaa !45
  %89 = getelementptr inbounds ptr, ptr %88, i64 5
  %90 = load ptr, ptr %89, align 8
  %91 = call noundef ptr %90(ptr noundef nonnull align 8 dereferenceable(372) %83, ptr noundef %86, ptr noundef %87)
  store ptr %91, ptr %13, align 8, !tbaa !291
  %92 = load ptr, ptr %4, align 8, !tbaa !285
  %93 = load ptr, ptr %12, align 8, !tbaa !287
  %94 = load ptr, ptr %13, align 8, !tbaa !291
  %95 = load ptr, ptr %10, align 8, !tbaa !49
  %96 = load ptr, ptr %92, align 8, !tbaa !45
  %97 = getelementptr inbounds ptr, ptr %96, i64 5
  %98 = load ptr, ptr %97, align 8
  call void %98(ptr noundef nonnull align 8 dereferenceable(8) %92, ptr noundef %93, ptr noundef %94, i32 noundef 1129071181, ptr noundef %95)
  call void @llvm.lifetime.end.p0(i64 8, ptr %13) #16
  call void @llvm.lifetime.end.p0(i64 8, ptr %12) #16
  call void @llvm.lifetime.end.p0(i64 4, ptr %11) #16
  br label %99

99:                                               ; preds = %70, %62
  call void @llvm.lifetime.end.p0(i64 8, ptr %10) #16
  br label %100

100:                                              ; preds = %99
  %101 = load i32, ptr %5, align 4, !tbaa !9
  %102 = add nsw i32 %101, 1
  store i32 %102, ptr %5, align 4, !tbaa !9
  br label %57, !llvm.loop !293

103:                                              ; preds = %57
  call void @llvm.lifetime.end.p0(i64 4, ptr %5) #16
  ret void
}