; Function Attrs: mustprogress uwtable
define dso_local void @_ZN24btMultiBodyDynamicsWorld20serializeMultiBodiesEP12btSerializer(ptr noundef nonnull readonly align 8 captures(none) dereferenceable(848) %0, ptr noundef %1) unnamed_addr #0 align 2 {
  %3 = getelementptr inbounds nuw i8, ptr %0, i64 516
  %4 = load i32, ptr %3, align 4, !tbaa !4
  %5 = icmp sgt i32 %4, 0
  br i1 %5, label %.lr.ph, label %.preheader

.lr.ph:                                           ; preds = %2
  %6 = getelementptr inbounds nuw i8, ptr %0, i64 528
  br label %11

.preheader:                                       ; preds = %11, %2
  %7 = getelementptr inbounds nuw i8, ptr %0, i64 12
  %8 = load i32, ptr %7, align 4, !tbaa !183
  %9 = icmp sgt i32 %8, 0
  br i1 %9, label %.lr.ph29, label %._crit_edge

.lr.ph29:                                         ; preds = %.preheader
  %10 = getelementptr inbounds nuw i8, ptr %0, i64 24
  br label %36

11:                                               ; preds = %.lr.ph, %11
  %indvars.iv = phi i64 [ 0, %.lr.ph ], [ %indvars.iv.next, %11 ]
  %12 = load ptr, ptr %6, align 8, !tbaa !14
  %13 = getelementptr inbounds nuw ptr, ptr %12, i64 %indvars.iv
  %14 = load ptr, ptr %13, align 8, !tbaa !15
  %15 = load ptr, ptr %14, align 8, !tbaa !105
  %16 = getelementptr inbounds nuw i8, ptr %15, i64 16
  %17 = load ptr, ptr %16, align 8
  %18 = tail call noundef i32 %17(ptr noundef nonnull align 8 dereferenceable(640) %14)
  %19 = sext i32 %18 to i64
  %20 = load ptr, ptr %1, align 8, !tbaa !105
  %21 = getelementptr inbounds nuw i8, ptr %20, i64 32
  %22 = load ptr, ptr %21, align 8
  %23 = tail call noundef ptr %22(ptr noundef nonnull align 8 dereferenceable(8) %1, i64 noundef %19, i32 noundef 1)
  %24 = getelementptr inbounds nuw i8, ptr %23, i64 8
  %25 = load ptr, ptr %24, align 8, !tbaa !248
  %26 = load ptr, ptr %14, align 8, !tbaa !105
  %27 = getelementptr inbounds nuw i8, ptr %26, i64 24
  %28 = load ptr, ptr %27, align 8
  %29 = tail call noundef ptr %28(ptr noundef nonnull align 8 dereferenceable(640) %14, ptr noundef %25, ptr noundef nonnull %1)
  %30 = load ptr, ptr %1, align 8, !tbaa !105
  %31 = getelementptr inbounds nuw i8, ptr %30, i64 40
  %32 = load ptr, ptr %31, align 8
  tail call void %32(ptr noundef nonnull align 8 dereferenceable(8) %1, ptr noundef %23, ptr noundef %29, i32 noundef 1497645645, ptr noundef nonnull %14)
  %indvars.iv.next = add nuw nsw i64 %indvars.iv, 1
  %33 = load i32, ptr %3, align 4, !tbaa !4
  %34 = sext i32 %33 to i64
  %35 = icmp slt i64 %indvars.iv.next, %34
  br i1 %35, label %11, label %.preheader, !llvm.loop !250

36:                                               ; preds = %.lr.ph29, %63
  %37 = phi i32 [ %8, %.lr.ph29 ], [ %64, %63 ]
  %indvars.iv31 = phi i64 [ 0, %.lr.ph29 ], [ %indvars.iv.next32, %63 ]
  %38 = load ptr, ptr %10, align 8, !tbaa !182
  %39 = getelementptr inbounds nuw ptr, ptr %38, i64 %indvars.iv31
  %40 = load ptr, ptr %39, align 8, !tbaa !251
  %41 = getelementptr inbounds nuw i8, ptr %40, i64 272
  %42 = load i32, ptr %41, align 8, !tbaa !252
  %43 = icmp eq i32 %42, 64
  br i1 %43, label %44, label %63

44:                                               ; preds = %36
  %45 = load ptr, ptr %40, align 8, !tbaa !105
  %46 = getelementptr inbounds nuw i8, ptr %45, i64 32
  %47 = load ptr, ptr %46, align 8
  %48 = tail call noundef i32 %47(ptr noundef nonnull align 8 dereferenceable(372) %40)
  %49 = sext i32 %48 to i64
  %50 = load ptr, ptr %1, align 8, !tbaa !105
  %51 = getelementptr inbounds nuw i8, ptr %50, i64 32
  %52 = load ptr, ptr %51, align 8
  %53 = tail call noundef ptr %52(ptr noundef nonnull align 8 dereferenceable(8) %1, i64 noundef %49, i32 noundef 1)
  %54 = getelementptr inbounds nuw i8, ptr %53, i64 8
  %55 = load ptr, ptr %54, align 8, !tbaa !248
  %56 = load ptr, ptr %40, align 8, !tbaa !105
  %57 = getelementptr inbounds nuw i8, ptr %56, i64 40
  %58 = load ptr, ptr %57, align 8
  %59 = tail call noundef ptr %58(ptr noundef nonnull align 8 dereferenceable(372) %40, ptr noundef %55, ptr noundef nonnull %1)
  %60 = load ptr, ptr %1, align 8, !tbaa !105
  %61 = getelementptr inbounds nuw i8, ptr %60, i64 40
  %62 = load ptr, ptr %61, align 8
  tail call void %62(ptr noundef nonnull align 8 dereferenceable(8) %1, ptr noundef %53, ptr noundef %59, i32 noundef 1129071181, ptr noundef nonnull %40)
  %.pre = load i32, ptr %7, align 4, !tbaa !183
  br label %63

63:                                               ; preds = %44, %36
  %64 = phi i32 [ %.pre, %44 ], [ %37, %36 ]
  %indvars.iv.next32 = add nuw nsw i64 %indvars.iv31, 1
  %65 = sext i32 %64 to i64
  %66 = icmp slt i64 %indvars.iv.next32, %65
  br i1 %66, label %36, label %._crit_edge, !llvm.loop !253

._crit_edge:                                      ; preds = %63, %.preheader
  ret void
}